target datalayout = "e-m:e-p270:32:32-p271:32:32-p272:64:64-i64:64-i128:128-f80:128-n8:16:32:64-S128"
target triple = "x86_64-pc-linux-gnu"

%struct.uv_pipe_s = type { ptr, ptr, i32, ptr, [2 x ptr], %union.anon, ptr, i32, i64, ptr, ptr, ptr, ptr, %struct.uv__io_s, [2 x ptr], [2 x ptr], ptr, i32, i32, ptr, i32, ptr }
%union.anon = type { [4 x ptr] }
%struct.uv__io_s = type { ptr, [2 x ptr], [2 x ptr], i32, i32, i32 }
%struct.uv__stream_queued_fds_s = type { i32, i32, [1 x i32] }

; Function Attrs: nounwind uwtable
define dso_local i32 @uv_pipe_pending_count(ptr noundef %0) #0 {
  %2 = alloca i32, align 4
  %3 = alloca ptr, align 8
  %4 = alloca ptr, align 8
  %5 = alloca i32, align 4
  store ptr %0, ptr %3, align 8, !tbaa !9
  call void @llvm.lifetime.start.p0(i64 8, ptr %4) #8
  %6 = load ptr, ptr %3, align 8, !tbaa !9
  %7 = getelementptr inbounds nuw %struct.uv_pipe_s, ptr %6, i32 0, i32 20
  %8 = load i32, ptr %7, align 8, !tbaa !23
  %9 = icmp ne i32 %8, 0
  br i1 %9, label %11, label %10

10:                                               ; preds = %1
  store i32 0, ptr %2, align 4
  store i32 1, ptr %5, align 4
  br label %31

11:                                               ; preds = %1
  %12 = load ptr, ptr %3, align 8, !tbaa !9
  %13 = getelementptr inbounds nuw %struct.uv_pipe_s, ptr %12, i32 0, i32 18
  %14 = load i32, ptr %13, align 4, !tbaa !48
  %15 = icmp eq i32 %14, -1
  br i1 %15, label %16, label %17

16:                                               ; preds = %11
  store i32 0, ptr %2, align 4
  store i32 1, ptr %5, align 4
  br label %31

17:                                               ; preds = %11
  %18 = load ptr, ptr %3, align 8, !tbaa !9
  %19 = getelementptr inbounds nuw %struct.uv_pipe_s, ptr %18, i32 0, i32 19
  %20 = load ptr, ptr %19, align 8, !tbaa !49
  %21 = icmp eq ptr %20, null
  br i1 %21, label %22, label %23

22:                                               ; preds = %17
  store i32 1, ptr %2, align 4
  store i32 1, ptr %5, align 4
  br label %31

23:                                               ; preds = %17
  %24 = load ptr, ptr %3, align 8, !tbaa !9
  %25 = getelementptr inbounds nuw %struct.uv_pipe_s, ptr %24, i32 0, i32 19
  %26 = load ptr, ptr %25, align 8, !tbaa !49
  store ptr %26, ptr %4, align 8, !tbaa !50
  %27 = load ptr, ptr %4, align 8, !tbaa !50
  %28 = getelementptr inbounds nuw %struct.uv__stream_queued_fds_s, ptr %27, i32 0, i32 1
  %29 = load i32, ptr %28, align 4, !tbaa !52
  %30 = add i32 %29, 1
  store i32 %30, ptr %2, align 4
  store i32 1, ptr %5, align 4
  br label %31

31:                                               ; preds = %23, %22, %16, %10
  call void @llvm.lifetime.end.p0(i64 8, ptr %4) #8
  %32 = load i32, ptr %2, align 4
  ret i32 %32
}