; Function Attrs: mustprogress nofree norecurse nosync nounwind willreturn memory(read, inaccessiblemem: none) uwtable
define dso_local i32 @uv_pipe_pending_count(ptr noundef readonly captures(none) %0) local_unnamed_addr #8 {
  %2 = getelementptr inbounds nuw i8, ptr %0, i64 248
  %3 = load i32, ptr %2, align 8, !tbaa !17
  %.not = icmp eq i32 %3, 0
  br i1 %.not, label %16, label %4

4:                                                ; preds = %1
  %5 = getelementptr inbounds nuw i8, ptr %0, i64 236
  %6 = load i32, ptr %5, align 4, !tbaa !39
  %7 = icmp eq i32 %6, -1
  br i1 %7, label %16, label %8

8:                                                ; preds = %4
  %9 = getelementptr inbounds nuw i8, ptr %0, i64 240
  %10 = load ptr, ptr %9, align 8, !tbaa !40
  %11 = icmp eq ptr %10, null
  br i1 %11, label %16, label %12

12:                                               ; preds = %8
  %13 = getelementptr inbounds nuw i8, ptr %10, i64 4
  %14 = load i32, ptr %13, align 4, !tbaa !41
  %15 = add i32 %14, 1
  br label %16

16:                                               ; preds = %8, %4, %1, %12
  %.0 = phi i32 [ %15, %12 ], [ 0, %1 ], [ 0, %4 ], [ 1, %8 ]
  ret i32 %.0
}